; Function Attrs: nounwind uwtable
define i32 @lv_anim_path_ease_out(ptr nocapture noundef readonly %0) local_unnamed_addr #0 {
  %2 = getelementptr inbounds nuw i8, ptr %0, i64 88
  %3 = load i32, ptr %2, align 8, !tbaa !25
  %4 = getelementptr inbounds nuw i8, ptr %0, i64 84
  %5 = load i32, ptr %4, align 4, !tbaa !30
  %6 = tail call i32 @lv_map(i32 noundef %3, i32 noundef 0, i32 noundef %5, i32 noundef 0, i32 noundef 1024) #8
  %7 = tail call i32 @lv_cubic_bezier(i32 noundef %6, i32 noundef 0, i32 noundef 0, i32 noundef 593, i32 noundef 1024) #8
  %8 = getelementptr inbounds nuw i8, ptr %0, i64 80
  %9 = load i32, ptr %8, align 8, !tbaa !28
  %10 = getelementptr inbounds nuw i8, ptr %0, i64 72
  %11 = load i32, ptr %10, align 8, !tbaa !27
  %12 = sub nsw i32 %9, %11
  %13 = mul nsw i32 %12, %7
  %14 = ashr i32 %13, 10
  %15 = add nsw i32 %14, %11
  ret i32 %15
}